; Function Attrs: mustprogress uwtable
define noundef nonnull align 8 dereferenceable(8) ptr @_ZNK6casadi6MXNode8sparsityEx(ptr noundef nonnull readnone align 8 dereferenceable(64) %0, i64 noundef %1) unnamed_addr #3 align 2 personality ptr @__gxx_personality_v0 {
  %3 = alloca %"class.std::__cxx11::basic_string", align 8
  %4 = alloca %"class.std::__cxx11::basic_string", align 8
  %5 = alloca %"class.std::__cxx11::basic_string", align 8
  %6 = alloca %"class.std::__cxx11::basic_string", align 8
  %7 = alloca %"class.std::allocator.2", align 1
  %8 = alloca %"class.std::__cxx11::basic_string", align 8
  %9 = alloca %"class.std::__cxx11::basic_string", align 8
  %10 = alloca %"class.std::__cxx11::basic_string", align 8
  %11 = alloca %"class.std::allocator.2", align 1
  %12 = alloca %"class.std::vector.5", align 8
  %13 = icmp eq i64 %1, 0
  br i1 %13, label %48, label %14

14:                                               ; preds = %2
  %15 = tail call ptr @__cxa_allocate_exception(i64 40) #31
  call void @_ZNSaIcEC1Ev(ptr noundef nonnull align 1 dereferenceable(1) %7) #31
  invoke void @_ZNSt7__cxx1112basic_stringIcSt11char_traitsIcESaIcEEC2IS3_EEPKcRKS3_(ptr noundef nonnull align 8 dereferenceable(32) %6, ptr noundef nonnull @.str.18, ptr noundef nonnull align 1 dereferenceable(1) %7)
          to label %16 unwind label %.thread

16:                                               ; preds = %14
  invoke void @_ZN6casadi9trim_pathERKNSt7__cxx1112basic_stringIcSt11char_traitsIcESaIcEEE(ptr dead_on_unwind nonnull writable sret(%"class.std::__cxx11::basic_string") align 8 %5, ptr noundef nonnull align 8 dereferenceable(32) %6)
          to label %17 unwind label %27

17:                                               ; preds = %16
  %18 = invoke noundef nonnull align 8 dereferenceable(32) ptr @_ZNSt7__cxx1112basic_stringIcSt11char_traitsIcESaIcEE6appendEPKc(ptr noundef nonnull align 8 dereferenceable(32) %5, ptr noundef nonnull @.str.1)
          to label %19 unwind label %29

19:                                               ; preds = %17
  call void @_ZNSt7__cxx1112basic_stringIcSt11char_traitsIcESaIcEEC1EOS4_(ptr noundef nonnull align 8 dereferenceable(32) %4, ptr noundef nonnull align 8 dereferenceable(32) %18) #31
  call void @_ZNSaIcEC1Ev(ptr noundef nonnull align 1 dereferenceable(1) %11) #31
  invoke void @_ZNSt7__cxx1112basic_stringIcSt11char_traitsIcESaIcEEC2IS3_EEPKcRKS3_(ptr noundef nonnull align 8 dereferenceable(32) %10, ptr noundef nonnull @.str.20, ptr noundef nonnull align 1 dereferenceable(1) %11)
          to label %20 unwind label %31

20:                                               ; preds = %19
  %21 = invoke noundef nonnull align 8 dereferenceable(32) ptr @_ZNSt7__cxx1112basic_stringIcSt11char_traitsIcESaIcEE6insertEmPKc(ptr noundef nonnull align 8 dereferenceable(32) %10, i64 noundef 0, ptr noundef nonnull @.str.19)
          to label %22 unwind label %33

22:                                               ; preds = %20
  call void @_ZNSt7__cxx1112basic_stringIcSt11char_traitsIcESaIcEEC1EOS4_(ptr noundef nonnull align 8 dereferenceable(32) %9, ptr noundef nonnull align 8 dereferenceable(32) %21) #31
  call void @llvm.memset.p0.i64(ptr noundef nonnull align 8 dereferenceable(24) %12, i8 0, i64 24, i1 false), !alias.scope !47
  invoke void @_ZN6casadi6fmtstrERKNSt7__cxx1112basic_stringIcSt11char_traitsIcESaIcEEERKSt6vectorIS5_SaIS5_EE(ptr dead_on_unwind nonnull writable sret(%"class.std::__cxx11::basic_string") align 8 %8, ptr noundef nonnull align 8 dereferenceable(32) %9, ptr noundef nonnull align 8 dereferenceable(24) %12)
          to label %23 unwind label %35

23:                                               ; preds = %22
  invoke void @_ZStplIcSt11char_traitsIcESaIcEENSt7__cxx1112basic_stringIT_T0_T1_EEOS8_S9_(ptr dead_on_unwind nonnull writable sret(%"class.std::__cxx11::basic_string") align 8 %3, ptr noundef nonnull align 8 dereferenceable(32) %4, ptr noundef nonnull align 8 dereferenceable(32) %8)
          to label %24 unwind label %37

24:                                               ; preds = %23
  invoke void @_ZN6casadi15CasadiExceptionC2ERKNSt7__cxx1112basic_stringIcSt11char_traitsIcESaIcEEE(ptr noundef nonnull align 8 dereferenceable(40) %15, ptr noundef nonnull align 8 dereferenceable(32) %3)
          to label %25 unwind label %39

25:                                               ; preds = %24
  invoke void @__cxa_throw(ptr nonnull %15, ptr nonnull @_ZTIN6casadi15CasadiExceptionE, ptr nonnull @_ZN6casadi15CasadiExceptionD2Ev) #34
          to label %51 unwind label %39

.thread:                                          ; preds = %14
  %26 = landingpad { ptr, i32 }
          cleanup
  call void @_ZNSaIcED1Ev(ptr noundef nonnull align 1 dereferenceable(1) %7) #31
  br label %47

27:                                               ; preds = %16
  %28 = landingpad { ptr, i32 }
          cleanup
  br label %46

29:                                               ; preds = %17
  %30 = landingpad { ptr, i32 }
          cleanup
  br label %45

31:                                               ; preds = %19
  %32 = landingpad { ptr, i32 }
          cleanup
  br label %44

33:                                               ; preds = %20
  %34 = landingpad { ptr, i32 }
          cleanup
  br label %43

35:                                               ; preds = %22
  %36 = landingpad { ptr, i32 }
          cleanup
  br label %42

37:                                               ; preds = %23
  %38 = landingpad { ptr, i32 }
          cleanup
  br label %41

39:                                               ; preds = %25, %24
  %.0 = phi i1 [ false, %25 ], [ true, %24 ]
  %40 = landingpad { ptr, i32 }
          cleanup
  call void @_ZNSt7__cxx1112basic_stringIcSt11char_traitsIcESaIcEED1Ev(ptr noundef nonnull align 8 dereferenceable(32) %3) #31
  br label %41

41:                                               ; preds = %39, %37
  %.pn = phi { ptr, i32 } [ %40, %39 ], [ %38, %37 ]
  %.1 = phi i1 [ %.0, %39 ], [ true, %37 ]
  call void @_ZNSt7__cxx1112basic_stringIcSt11char_traitsIcESaIcEED1Ev(ptr noundef nonnull align 8 dereferenceable(32) %8) #31
  br label %42

42:                                               ; preds = %41, %35
  %.pn.pn = phi { ptr, i32 } [ %.pn, %41 ], [ %36, %35 ]
  %.2 = phi i1 [ %.1, %41 ], [ true, %35 ]
  call void @_ZNSt6vectorINSt7__cxx1112basic_stringIcSt11char_traitsIcESaIcEEESaIS5_EED2Ev(ptr noundef nonnull align 8 dereferenceable(24) %12) #31
  call void @_ZNSt7__cxx1112basic_stringIcSt11char_traitsIcESaIcEED1Ev(ptr noundef nonnull align 8 dereferenceable(32) %9) #31
  br label %43

43:                                               ; preds = %42, %33
  %.pn.pn.pn = phi { ptr, i32 } [ %.pn.pn, %42 ], [ %34, %33 ]
  %.3 = phi i1 [ %.2, %42 ], [ true, %33 ]
  call void @_ZNSt7__cxx1112basic_stringIcSt11char_traitsIcESaIcEED1Ev(ptr noundef nonnull align 8 dereferenceable(32) %10) #31
  br label %44

44:                                               ; preds = %43, %31
  %.pn.pn.pn.pn = phi { ptr, i32 } [ %.pn.pn.pn, %43 ], [ %32, %31 ]
  %.4 = phi i1 [ %.3, %43 ], [ true, %31 ]
  call void @_ZNSaIcED1Ev(ptr noundef nonnull align 1 dereferenceable(1) %11) #31
  call void @_ZNSt7__cxx1112basic_stringIcSt11char_traitsIcESaIcEED1Ev(ptr noundef nonnull align 8 dereferenceable(32) %4) #31
  br label %45

45:                                               ; preds = %44, %29
  %.pn.pn.pn.pn.pn = phi { ptr, i32 } [ %.pn.pn.pn.pn, %44 ], [ %30, %29 ]
  %.5 = phi i1 [ %.4, %44 ], [ true, %29 ]
  call void @_ZNSt7__cxx1112basic_stringIcSt11char_traitsIcESaIcEED1Ev(ptr noundef nonnull align 8 dereferenceable(32) %5) #31
  br label %46

46:                                               ; preds = %27, %45
  %.pn.pn.pn.pn.pn.pn = phi { ptr, i32 } [ %.pn.pn.pn.pn.pn, %45 ], [ %28, %27 ]
  %.6 = phi i1 [ %.5, %45 ], [ true, %27 ]
  call void @_ZNSt7__cxx1112basic_stringIcSt11char_traitsIcESaIcEED1Ev(ptr noundef nonnull align 8 dereferenceable(32) %6) #31
  call void @_ZNSaIcED1Ev(ptr noundef nonnull align 1 dereferenceable(1) %7) #31
  br i1 %.6, label %47, label %50

47:                                               ; preds = %.thread, %46
  %.pn.pn.pn.pn.pn.pn.pn28 = phi { ptr, i32 } [ %26, %.thread ], [ %.pn.pn.pn.pn.pn.pn, %46 ]
  call void @__cxa_free_exception(ptr %15) #31
  br label %50

48:                                               ; preds = %2
  %49 = getelementptr inbounds i8, ptr %0, i64 56
  ret ptr %49

50:                                               ; preds = %46, %47
  %.pn.pn.pn.pn.pn.pn.pn27 = phi { ptr, i32 } [ %.pn.pn.pn.pn.pn.pn, %46 ], [ %.pn.pn.pn.pn.pn.pn.pn28, %47 ]
  resume { ptr, i32 } %.pn.pn.pn.pn.pn.pn.pn27

51:                                               ; preds = %25
  unreachable
}